target datalayout = "e-m:e-p270:32:32-p271:32:32-p272:64:64-i64:64-i128:128-f80:128-n8:16:32:64-S128"
target triple = "x86_64-pc-linux-gnu"

%struct.TCGContext = type { ptr, ptr, ptr, ptr, ptr, i32, i32, i32, i32, i32, i32, i32, i8, i8, i8, i32, i32, i64, i64, i64, ptr, ptr, ptr, ptr, ptr, i64, ptr, ptr, ptr, ptr, %struct.anon, ptr, ptr, ptr, ptr, ptr, [6 x ptr], [6 x %struct.TCGTempSet], [512 x %struct.TCGTemp], %union.anon, %union.anon, %struct.anon.0, ptr, [32 x ptr], [512 x i16], ptr, [1 x %struct.__jmp_buf_tag] }
%struct.anon = type { ptr, ptr }
%struct.TCGTempSet = type { [8 x i64] }
%struct.TCGTemp = type { i64, i64, ptr, i64, ptr, i64, ptr }
%union.anon = type { %struct.QTailQLink }
%struct.QTailQLink = type { ptr, ptr }
%struct.anon.0 = type { ptr, ptr }
%struct.__jmp_buf_tag = type { [8 x i64], i32, %struct.__sigset_t }
%struct.__sigset_t = type { [16 x i64] }
%struct.TCGOp = type { i32, i32, %union.anon.5, [2 x i32], [0 x i64] }
%union.anon.5 = type { %struct.QTailQLink }

@tcg_ctx = dso_local thread_local global ptr null, align 8

; Function Attrs: alwaysinline nounwind
define internal ptr @memset.inline(ptr nonnull %0, i32 %1, i64 %2) #4 {
  %4 = alloca ptr, align 8
  %5 = alloca i32, align 4
  %6 = alloca i64, align 8
  store ptr %0, ptr %4, align 8
  store i32 %1, ptr %5, align 4
  store i64 %2, ptr %6, align 8
  %7 = load ptr, ptr %4, align 8
  %8 = load i32, ptr %5, align 4
  %9 = load i64, ptr %6, align 8
  %10 = load ptr, ptr %4, align 8
  %11 = call i64 @llvm.objectsize.i64.p0(ptr %10, i1 false, i1 true, i1 false)
  %12 = call ptr @__memset_chk(ptr noundef %7, i32 noundef %8, i64 noundef %9, i64 noundef %11) #19
  ret ptr %12
}

; Function Attrs: inlinehint nounwind sspstrong uwtable
define internal ptr @tcg_malloc(i32 noundef %0) #3 {
  %2 = alloca ptr, align 8
  %3 = alloca i32, align 4
  %4 = alloca ptr, align 8
  %5 = alloca ptr, align 8
  %6 = alloca ptr, align 8
  %7 = alloca i32, align 4
  store i32 %0, ptr %3, align 4
  call void @llvm.lifetime.start.p0(i64 8, ptr %4) #19
  %8 = call align 8 ptr @llvm.threadlocal.address.p0(ptr align 8 @tcg_ctx)
  %9 = load ptr, ptr %8, align 8
  store ptr %9, ptr %4, align 8
  call void @llvm.lifetime.start.p0(i64 8, ptr %5) #19
  store ptr null, ptr %5, align 8, !annotation !4
  call void @llvm.lifetime.start.p0(i64 8, ptr %6) #19
  store ptr null, ptr %6, align 8, !annotation !4
  %10 = load i32, ptr %3, align 4
  %11 = add i32 %10, 8
  %12 = sub i32 %11, 1
  %13 = sdiv i32 %12, 8
  %14 = mul i32 %13, 8
  store i32 %14, ptr %3, align 4
  %15 = load ptr, ptr %4, align 8
  %16 = getelementptr inbounds nuw %struct.TCGContext, ptr %15, i32 0, i32 0
  %17 = load ptr, ptr %16, align 8
  store ptr %17, ptr %5, align 8
  %18 = load ptr, ptr %5, align 8
  %19 = load i32, ptr %3, align 4
  %20 = sext i32 %19 to i64
  %21 = getelementptr inbounds i8, ptr %18, i64 %20
  store ptr %21, ptr %6, align 8
  %22 = load ptr, ptr %6, align 8
  %23 = load ptr, ptr %4, align 8
  %24 = getelementptr inbounds nuw %struct.TCGContext, ptr %23, i32 0, i32 1
  %25 = load ptr, ptr %24, align 8
  %26 = icmp ugt ptr %22, %25
  %27 = xor i1 %26, true
  %28 = xor i1 %27, true
  %29 = zext i1 %28 to i32
  %30 = sext i32 %29 to i64
  %31 = call i64 @llvm.expect.i64(i64 %30, i64 0)
  %32 = icmp ne i64 %31, 0
  br i1 %32, label %33, label %38

33:                                               ; preds = %1
  %34 = call align 8 ptr @llvm.threadlocal.address.p0(ptr align 8 @tcg_ctx)
  %35 = load ptr, ptr %34, align 8
  %36 = load i32, ptr %3, align 4
  %37 = call ptr @tcg_malloc_internal(ptr noundef %35, i32 noundef %36)
  store ptr %37, ptr %2, align 8
  store i32 1, ptr %7, align 4
  br label %43

38:                                               ; preds = %1
  %39 = load ptr, ptr %6, align 8
  %40 = load ptr, ptr %4, align 8
  %41 = getelementptr inbounds nuw %struct.TCGContext, ptr %40, i32 0, i32 0
  store ptr %39, ptr %41, align 8
  %42 = load ptr, ptr %5, align 8
  store ptr %42, ptr %2, align 8
  store i32 1, ptr %7, align 4
  br label %43

43:                                               ; preds = %38, %33
  call void @llvm.lifetime.end.p0(i64 8, ptr %6) #19
  call void @llvm.lifetime.end.p0(i64 8, ptr %5) #19
  call void @llvm.lifetime.end.p0(i64 8, ptr %4) #19
  %44 = load ptr, ptr %2, align 8
  ret ptr %44
}

; Function Attrs: nounwind sspstrong uwtable
define internal ptr @tcg_op_alloc(i32 noundef %0, i32 noundef %1) #0 {
  %3 = alloca i32, align 4
  %4 = alloca i32, align 4
  %5 = alloca ptr, align 8
  %6 = alloca ptr, align 8
  %7 = alloca i32, align 4
  %8 = alloca i32, align 4
  %9 = alloca i32, align 4
  store i32 %0, ptr %3, align 4
  store i32 %1, ptr %4, align 4
  call void @llvm.lifetime.start.p0(i64 8, ptr %5) #19
  %10 = call align 8 ptr @llvm.threadlocal.address.p0(ptr align 8 @tcg_ctx)
  %11 = load ptr, ptr %10, align 8
  store ptr %11, ptr %5, align 8
  call void @llvm.lifetime.start.p0(i64 8, ptr %6) #19
  store ptr null, ptr %6, align 8
  %12 = load ptr, ptr %5, align 8
  %13 = getelementptr inbounds nuw %struct.TCGContext, ptr %12, i32 0, i32 40
  %14 = load ptr, ptr %13, align 8
  %15 = icmp eq ptr %14, null
  %16 = xor i1 %15, true
  %17 = xor i1 %16, true
  %18 = xor i1 %17, true
  %19 = zext i1 %18 to i32
  %20 = sext i32 %19 to i64
  %21 = call i64 @llvm.expect.i64(i64 %20, i64 0)
  %22 = icmp ne i64 %21, 0
  br i1 %22, label %23, label %90

23:                                               ; preds = %2
  %24 = load ptr, ptr %5, align 8
  %25 = getelementptr inbounds nuw %struct.TCGContext, ptr %24, i32 0, i32 40
  %26 = load ptr, ptr %25, align 8
  store ptr %26, ptr %6, align 8
  br label %27

27:                                               ; preds = %85, %23
  %28 = load ptr, ptr %6, align 8
  %29 = icmp ne ptr %28, null
  br i1 %29, label %30, label %89

30:                                               ; preds = %27
  %31 = load i32, ptr %4, align 4
  %32 = load ptr, ptr %6, align 8
  %33 = load i32, ptr %32, align 8
  %34 = lshr i32 %33, 8
  %35 = and i32 %34, 255
  %36 = icmp ule i32 %31, %35
  br i1 %36, label %37, label %84

37:                                               ; preds = %30
  br label %38

38:                                               ; preds = %37
  %39 = load ptr, ptr %6, align 8
  %40 = getelementptr inbounds nuw %struct.TCGOp, ptr %39, i32 0, i32 2
  %41 = load ptr, ptr %40, align 8
  %42 = icmp ne ptr %41, null
  br i1 %42, label %43, label %53

43:                                               ; preds = %38
  %44 = load ptr, ptr %6, align 8
  %45 = getelementptr inbounds nuw %struct.TCGOp, ptr %44, i32 0, i32 2
  %46 = getelementptr inbounds nuw %struct.QTailQLink, ptr %45, i32 0, i32 1
  %47 = load ptr, ptr %46, align 8
  %48 = load ptr, ptr %6, align 8
  %49 = getelementptr inbounds nuw %struct.TCGOp, ptr %48, i32 0, i32 2
  %50 = load ptr, ptr %49, align 8
  %51 = getelementptr inbounds nuw %struct.TCGOp, ptr %50, i32 0, i32 2
  %52 = getelementptr inbounds nuw %struct.QTailQLink, ptr %51, i32 0, i32 1
  store ptr %47, ptr %52, align 8
  br label %61

53:                                               ; preds = %38
  %54 = load ptr, ptr %6, align 8
  %55 = getelementptr inbounds nuw %struct.TCGOp, ptr %54, i32 0, i32 2
  %56 = getelementptr inbounds nuw %struct.QTailQLink, ptr %55, i32 0, i32 1
  %57 = load ptr, ptr %56, align 8
  %58 = load ptr, ptr %5, align 8
  %59 = getelementptr inbounds nuw %struct.TCGContext, ptr %58, i32 0, i32 40
  %60 = getelementptr inbounds nuw %struct.QTailQLink, ptr %59, i32 0, i32 1
  store ptr %57, ptr %60, align 8
  br label %61

61:                                               ; preds = %53, %43
  %62 = load ptr, ptr %6, align 8
  %63 = getelementptr inbounds nuw %struct.TCGOp, ptr %62, i32 0, i32 2
  %64 = load ptr, ptr %63, align 8
  %65 = load ptr, ptr %6, align 8
  %66 = getelementptr inbounds nuw %struct.TCGOp, ptr %65, i32 0, i32 2
  %67 = getelementptr inbounds nuw %struct.QTailQLink, ptr %66, i32 0, i32 1
  %68 = load ptr, ptr %67, align 8
  %69 = getelementptr inbounds nuw %struct.QTailQLink, ptr %68, i32 0, i32 0
  store ptr %64, ptr %69, align 8
  %70 = load ptr, ptr %6, align 8
  %71 = getelementptr inbounds nuw %struct.TCGOp, ptr %70, i32 0, i32 2
  %72 = getelementptr inbounds nuw %struct.QTailQLink, ptr %71, i32 0, i32 1
  store ptr null, ptr %72, align 8
  %73 = load ptr, ptr %6, align 8
  %74 = getelementptr inbounds nuw %struct.TCGOp, ptr %73, i32 0, i32 2
  %75 = getelementptr inbounds nuw %struct.QTailQLink, ptr %74, i32 0, i32 0
  store ptr null, ptr %75, align 8
  %76 = load ptr, ptr %6, align 8
  %77 = getelementptr inbounds nuw %struct.TCGOp, ptr %76, i32 0, i32 2
  store ptr null, ptr %77, align 8
  br label %78

78:                                               ; preds = %61
  br label %79

79:                                               ; preds = %78
  %80 = load ptr, ptr %6, align 8
  %81 = load i32, ptr %80, align 8
  %82 = lshr i32 %81, 8
  %83 = and i32 %82, 255
  store i32 %83, ptr %4, align 4
  br label %108

84:                                               ; preds = %30
  br label %85

85:                                               ; preds = %84
  %86 = load ptr, ptr %6, align 8
  %87 = getelementptr inbounds nuw %struct.TCGOp, ptr %86, i32 0, i32 2
  %88 = load ptr, ptr %87, align 8
  store ptr %88, ptr %6, align 8
  br label %27, !llvm.loop !37

89:                                               ; preds = %27
  br label %90

90:                                               ; preds = %89, %2
  call void @llvm.lifetime.start.p0(i64 4, ptr %7) #19
  store i32 4, ptr %7, align 4
  call void @llvm.lifetime.start.p0(i64 4, ptr %8) #19
  %91 = load i32, ptr %4, align 4
  store i32 %91, ptr %8, align 4
  %92 = load i32, ptr %7, align 4
  %93 = load i32, ptr %8, align 4
  %94 = icmp ugt i32 %92, %93
  br i1 %94, label %95, label %97

95:                                               ; preds = %90
  %96 = load i32, ptr %7, align 4
  br label %99

97:                                               ; preds = %90
  %98 = load i32, ptr %8, align 4
  br label %99

99:                                               ; preds = %97, %95
  %100 = phi i32 [ %96, %95 ], [ %98, %97 ]
  store i32 %100, ptr %9, align 4
  call void @llvm.lifetime.end.p0(i64 4, ptr %8) #19
  call void @llvm.lifetime.end.p0(i64 4, ptr %7) #19
  %101 = load i32, ptr %9, align 4
  store i32 %101, ptr %4, align 4
  %102 = load i32, ptr %4, align 4
  %103 = zext i32 %102 to i64
  %104 = mul i64 8, %103
  %105 = add i64 32, %104
  %106 = trunc i64 %105 to i32
  %107 = call ptr @tcg_malloc(i32 noundef %106)
  store ptr %107, ptr %6, align 8
  br label %108

108:                                              ; preds = %99, %79
  %109 = load ptr, ptr %6, align 8
  %110 = call ptr @memset.inline(ptr noundef %109, i32 noundef 0, i64 noundef 8) #19
  %111 = load i32, ptr %3, align 4
  %112 = load ptr, ptr %6, align 8
  %113 = load i32, ptr %112, align 8
  %114 = and i32 %111, 255
  %115 = and i32 %113, -256
  %116 = or i32 %115, %114
  store i32 %116, ptr %112, align 8
  %117 = load i32, ptr %4, align 4
  %118 = load ptr, ptr %6, align 8
  %119 = load i32, ptr %118, align 8
  %120 = and i32 %117, 255
  %121 = shl i32 %120, 8
  %122 = and i32 %119, -65281
  %123 = or i32 %122, %121
  store i32 %123, ptr %118, align 8
  br label %124

124:                                              ; preds = %108
  %125 = load ptr, ptr %6, align 8
  %126 = load i32, ptr %125, align 8
  %127 = lshr i32 %126, 8
  %128 = and i32 %127, 255
  %129 = load i32, ptr %4, align 4
  %130 = icmp eq i32 %128, %129
  br i1 %130, label %132, label %131

131:                                              ; preds = %124
  unreachable

132:                                              ; preds = %124
  br label %133

133:                                              ; preds = %132
  br label %134

134:                                              ; preds = %133
  %135 = load ptr, ptr %5, align 8
  %136 = getelementptr inbounds nuw %struct.TCGContext, ptr %135, i32 0, i32 9
  %137 = load i32, ptr %136, align 8
  %138 = add i32 %137, 1
  store i32 %138, ptr %136, align 8
  %139 = load ptr, ptr %6, align 8
  call void @llvm.lifetime.end.p0(i64 8, ptr %6) #19
  call void @llvm.lifetime.end.p0(i64 8, ptr %5) #19
  ret ptr %139
}

; Function Attrs: nounwind sspstrong uwtable
define dso_local ptr @tcg_op_insert_before(ptr noundef %0, ptr noundef %1, i32 noundef %2, i32 noundef %3) #0 {
  %5 = alloca ptr, align 8
  %6 = alloca ptr, align 8
  %7 = alloca i32, align 4
  %8 = alloca i32, align 4
  %9 = alloca ptr, align 8
  store ptr %0, ptr %5, align 8
  store ptr %1, ptr %6, align 8
  store i32 %2, ptr %7, align 4
  store i32 %3, ptr %8, align 4
  call void @llvm.lifetime.start.p0(i64 8, ptr %9) #19
  %10 = load i32, ptr %7, align 4
  %11 = load i32, ptr %8, align 4
  %12 = call ptr @tcg_op_alloc(i32 noundef %10, i32 noundef %11)
  store ptr %12, ptr %9, align 8
  %13 = load ptr, ptr %6, align 8
  %14 = load i32, ptr %13, align 8
  %15 = lshr i32 %14, 16
  %16 = and i32 %15, 255
  %17 = load ptr, ptr %9, align 8
  %18 = load i32, ptr %17, align 8
  %19 = and i32 %16, 255
  %20 = shl i32 %19, 16
  %21 = and i32 %18, -16711681
  %22 = or i32 %21, %20
  store i32 %22, ptr %17, align 8
  br label %23

23:                                               ; preds = %4
  %24 = load ptr, ptr %6, align 8
  %25 = getelementptr inbounds nuw %struct.TCGOp, ptr %24, i32 0, i32 2
  %26 = getelementptr inbounds nuw %struct.QTailQLink, ptr %25, i32 0, i32 1
  %27 = load ptr, ptr %26, align 8
  %28 = load ptr, ptr %9, align 8
  %29 = getelementptr inbounds nuw %struct.TCGOp, ptr %28, i32 0, i32 2
  %30 = getelementptr inbounds nuw %struct.QTailQLink, ptr %29, i32 0, i32 1
  store ptr %27, ptr %30, align 8
  %31 = load ptr, ptr %6, align 8
  %32 = load ptr, ptr %9, align 8
  %33 = getelementptr inbounds nuw %struct.TCGOp, ptr %32, i32 0, i32 2
  store ptr %31, ptr %33, align 8
  %34 = load ptr, ptr %9, align 8
  %35 = load ptr, ptr %6, align 8
  %36 = getelementptr inbounds nuw %struct.TCGOp, ptr %35, i32 0, i32 2
  %37 = getelementptr inbounds nuw %struct.QTailQLink, ptr %36, i32 0, i32 1
  %38 = load ptr, ptr %37, align 8
  %39 = getelementptr inbounds nuw %struct.QTailQLink, ptr %38, i32 0, i32 0
  store ptr %34, ptr %39, align 8
  %40 = load ptr, ptr %9, align 8
  %41 = getelementptr inbounds nuw %struct.TCGOp, ptr %40, i32 0, i32 2
  %42 = load ptr, ptr %6, align 8
  %43 = getelementptr inbounds nuw %struct.TCGOp, ptr %42, i32 0, i32 2
  %44 = getelementptr inbounds nuw %struct.QTailQLink, ptr %43, i32 0, i32 1
  store ptr %41, ptr %44, align 8
  br label %45

45:                                               ; preds = %23
  br label %46

46:                                               ; preds = %45
  %47 = load ptr, ptr %9, align 8
  call void @llvm.lifetime.end.p0(i64 8, ptr %9) #19
  ret ptr %47
}